
Skate_M1.elf:     file format elf32-avr

Sections:
Idx Name          Size      VMA       LMA       File off  Algn
  0 .data         0000005c  00800100  00000998  00000a2c  2**0
                  CONTENTS, ALLOC, LOAD, DATA
  1 .text         00000998  00000000  00000000  00000094  2**1
                  CONTENTS, ALLOC, LOAD, READONLY, CODE
  2 .bss          00000021  0080015c  0080015c  00000a88  2**0
                  ALLOC
  3 .stab         00000954  00000000  00000000  00000a88  2**2
                  CONTENTS, READONLY, DEBUGGING
  4 .stabstr      00000183  00000000  00000000  000013dc  2**0
                  CONTENTS, READONLY, DEBUGGING
  5 .debug_aranges 00000150  00000000  00000000  0000155f  2**0
                  CONTENTS, READONLY, DEBUGGING
  6 .debug_pubnames 00000262  00000000  00000000  000016af  2**0
                  CONTENTS, READONLY, DEBUGGING
  7 .debug_info   00000b79  00000000  00000000  00001911  2**0
                  CONTENTS, READONLY, DEBUGGING
  8 .debug_abbrev 00000572  00000000  00000000  0000248a  2**0
                  CONTENTS, READONLY, DEBUGGING
  9 .debug_line   00000ebe  00000000  00000000  000029fc  2**0
                  CONTENTS, READONLY, DEBUGGING
 10 .debug_frame  00000200  00000000  00000000  000038bc  2**2
                  CONTENTS, READONLY, DEBUGGING
 11 .debug_str    0000037a  00000000  00000000  00003abc  2**0
                  CONTENTS, READONLY, DEBUGGING
 12 .debug_loc    000003f3  00000000  00000000  00003e36  2**0
                  CONTENTS, READONLY, DEBUGGING
 13 .debug_pubtypes 000000fb  00000000  00000000  00004229  2**0
                  CONTENTS, READONLY, DEBUGGING
 14 .debug_ranges 00000100  00000000  00000000  00004324  2**0
                  CONTENTS, READONLY, DEBUGGING

Disassembly of section .text:

00000000 <__vectors>:
   0:	0c 94 34 00 	jmp	0x68	; 0x68 <__ctors_end>
   4:	0c 94 04 01 	jmp	0x208	; 0x208 <__vector_1>
   8:	0c 94 51 00 	jmp	0xa2	; 0xa2 <__bad_interrupt>
   c:	0c 94 51 00 	jmp	0xa2	; 0xa2 <__bad_interrupt>
  10:	0c 94 b1 03 	jmp	0x762	; 0x762 <__vector_4>
  14:	0c 94 51 00 	jmp	0xa2	; 0xa2 <__bad_interrupt>
  18:	0c 94 51 00 	jmp	0xa2	; 0xa2 <__bad_interrupt>
  1c:	0c 94 75 03 	jmp	0x6ea	; 0x6ea <__vector_7>
  20:	0c 94 51 00 	jmp	0xa2	; 0xa2 <__bad_interrupt>
  24:	0c 94 51 00 	jmp	0xa2	; 0xa2 <__bad_interrupt>
  28:	0c 94 51 00 	jmp	0xa2	; 0xa2 <__bad_interrupt>
  2c:	0c 94 51 00 	jmp	0xa2	; 0xa2 <__bad_interrupt>
  30:	0c 94 51 00 	jmp	0xa2	; 0xa2 <__bad_interrupt>
  34:	0c 94 51 00 	jmp	0xa2	; 0xa2 <__bad_interrupt>
  38:	0c 94 51 00 	jmp	0xa2	; 0xa2 <__bad_interrupt>
  3c:	0c 94 51 00 	jmp	0xa2	; 0xa2 <__bad_interrupt>
  40:	0c 94 51 00 	jmp	0xa2	; 0xa2 <__bad_interrupt>
  44:	0c 94 51 00 	jmp	0xa2	; 0xa2 <__bad_interrupt>
  48:	0c 94 e4 03 	jmp	0x7c8	; 0x7c8 <__vector_18>
  4c:	0c 94 07 04 	jmp	0x80e	; 0x80e <__vector_19>
  50:	0c 94 51 00 	jmp	0xa2	; 0xa2 <__bad_interrupt>
  54:	0c 94 32 01 	jmp	0x264	; 0x264 <__vector_21>
  58:	0c 94 51 00 	jmp	0xa2	; 0xa2 <__bad_interrupt>
  5c:	0c 94 51 00 	jmp	0xa2	; 0xa2 <__bad_interrupt>
  60:	0c 94 51 00 	jmp	0xa2	; 0xa2 <__bad_interrupt>
  64:	0c 94 51 00 	jmp	0xa2	; 0xa2 <__bad_interrupt>

00000068 <__ctors_end>:
  68:	11 24       	eor	r1, r1
  6a:	1f be       	out	0x3f, r1	; 63
  6c:	cf ef       	ldi	r28, 0xFF	; 255
  6e:	d8 e0       	ldi	r29, 0x08	; 8
  70:	de bf       	out	0x3e, r29	; 62
  72:	cd bf       	out	0x3d, r28	; 61

00000074 <__do_copy_data>:
  74:	11 e0       	ldi	r17, 0x01	; 1
  76:	a0 e0       	ldi	r26, 0x00	; 0
  78:	b1 e0       	ldi	r27, 0x01	; 1
  7a:	e8 e9       	ldi	r30, 0x98	; 152
  7c:	f9 e0       	ldi	r31, 0x09	; 9
  7e:	02 c0       	rjmp	.+4      	; 0x84 <__do_copy_data+0x10>
  80:	05 90       	lpm	r0, Z+
  82:	0d 92       	st	X+, r0
  84:	ac 35       	cpi	r26, 0x5C	; 92
  86:	b1 07       	cpc	r27, r17
  88:	d9 f7       	brne	.-10     	; 0x80 <__do_copy_data+0xc>

0000008a <__do_clear_bss>:
  8a:	11 e0       	ldi	r17, 0x01	; 1
  8c:	ac e5       	ldi	r26, 0x5C	; 92
  8e:	b1 e0       	ldi	r27, 0x01	; 1
  90:	01 c0       	rjmp	.+2      	; 0x94 <.do_clear_bss_start>

00000092 <.do_clear_bss_loop>:
  92:	1d 92       	st	X+, r1

00000094 <.do_clear_bss_start>:
  94:	ad 37       	cpi	r26, 0x7D	; 125
  96:	b1 07       	cpc	r27, r17
  98:	e1 f7       	brne	.-8      	; 0x92 <.do_clear_bss_loop>
  9a:	0e 94 53 00 	call	0xa6	; 0xa6 <main>
  9e:	0c 94 ca 04 	jmp	0x994	; 0x994 <_exit>

000000a2 <__bad_interrupt>:
  a2:	0c 94 00 00 	jmp	0	; 0x0 <__vectors>

000000a6 <main>:

uint8_t estado = 0;


int main(void)
{
  a6:	4f 92       	push	r4
  a8:	5f 92       	push	r5
  aa:	6f 92       	push	r6
  ac:	7f 92       	push	r7
  ae:	8f 92       	push	r8
  b0:	9f 92       	push	r9
  b2:	af 92       	push	r10
  b4:	bf 92       	push	r11
  b6:	cf 92       	push	r12
  b8:	df 92       	push	r13
  ba:	ef 92       	push	r14
  bc:	ff 92       	push	r15
  be:	0f 93       	push	r16
  c0:	1f 93       	push	r17
  c2:	cf 93       	push	r28
  c4:	df 93       	push	r29
	uint8_t Vel = 0;
	Motor_Init();
  c6:	0e 94 8e 01 	call	0x31c	; 0x31c <Motor_Init>
	ADC_Init();
  ca:	0e 94 72 01 	call	0x2e4	; 0x2e4 <ADC_Init>
	Buzzer_Init();
  ce:	0e 94 74 02 	call	0x4e8	; 0x4e8 <Buzzer_Init>
	Ultrasonic_Init();
  d2:	0e 94 4a 02 	call	0x494	; 0x494 <Ultrasonic_Init>
	USART_Init(MYUBRR);
  d6:	8c e0       	ldi	r24, 0x0C	; 12
  d8:	90 e0       	ldi	r25, 0x00	; 0
  da:	0e 94 ce 03 	call	0x79c	; 0x79c <USART_Init>
	LCD_Init();
  de:	0e 94 e9 01 	call	0x3d2	; 0x3d2 <LCD_Init>
	
	sei();
  e2:	78 94       	sei
	
	LCD_Start();
  e4:	0e 94 ec 01 	call	0x3d8	; 0x3d8 <LCD_Start>
	
	estado = 0;
  e8:	10 92 5d 01 	sts	0x015D, r1
			
				/* Calcula el porcentaje de la bateria */
				lee_bateria();
				/* Imprime en LCD */
				LCD_Cursor_Up();
				LCD_WriteString("Nivel:          ");
  ec:	cd e1       	ldi	r28, 0x1D	; 29
  ee:	d1 e0       	ldi	r29, 0x01	; 1
				LCD_Cursor_Down();
				LCD_WriteInt(bateria_p);
  f0:	03 e7       	ldi	r16, 0x73	; 115
  f2:	11 e0       	ldi	r17, 0x01	; 1
				LCD_WriteString(" %      ");
  f4:	0f 2e       	mov	r0, r31
  f6:	fe e2       	ldi	r31, 0x2E	; 46
  f8:	ef 2e       	mov	r14, r31
  fa:	f1 e0       	ldi	r31, 0x01	; 1
  fc:	ff 2e       	mov	r15, r31
  fe:	f0 2d       	mov	r31, r0
		switch (estado)
		{
			case 0:
				/* Imprime en LCD */
				LCD_Cursor_Up();
				LCD_WriteString("  Bienvenidos!  ");
 100:	0f 2e       	mov	r0, r31
 102:	f0 e0       	ldi	r31, 0x00	; 0
 104:	cf 2e       	mov	r12, r31
 106:	f1 e0       	ldi	r31, 0x01	; 1
 108:	df 2e       	mov	r13, r31
 10a:	f0 2d       	mov	r31, r0
				LCD_Cursor_Down();
				LCD_WriteString("    a UTEC ");
 10c:	0f 2e       	mov	r0, r31
 10e:	f1 e1       	ldi	r31, 0x11	; 17
 110:	af 2e       	mov	r10, r31
 112:	f1 e0       	ldi	r31, 0x01	; 1
 114:	bf 2e       	mov	r11, r31
 116:	f0 2d       	mov	r31, r0
				
				break;
			case 2:
				/* Imprime en LCD */
				LCD_Cursor_Up();
				LCD_WriteString("Distancia:    ");
 118:	0f 2e       	mov	r0, r31
 11a:	f7 e3       	ldi	r31, 0x37	; 55
 11c:	8f 2e       	mov	r8, r31
 11e:	f1 e0       	ldi	r31, 0x01	; 1
 120:	9f 2e       	mov	r9, r31
 122:	f0 2d       	mov	r31, r0
					LCD_WriteInt(distancia);
					LCD_WriteString(" cm    ");
				}
				else
				{
					LCD_WriteString(" > 30 cm    ");
 124:	0f 2e       	mov	r0, r31
 126:	fe e4       	ldi	r31, 0x4E	; 78
 128:	6f 2e       	mov	r6, r31
 12a:	f1 e0       	ldi	r31, 0x01	; 1
 12c:	7f 2e       	mov	r7, r31
 12e:	f0 2d       	mov	r31, r0
				LCD_WriteString("Distancia:    ");
				LCD_Cursor_Down();
				if (distancia <30)
				{
					LCD_WriteInt(distancia);
					LCD_WriteString(" cm    ");
 130:	0f 2e       	mov	r0, r31
 132:	f6 e4       	ldi	r31, 0x46	; 70
 134:	4f 2e       	mov	r4, r31
 136:	f1 e0       	ldi	r31, 0x01	; 1
 138:	5f 2e       	mov	r5, r31
 13a:	f0 2d       	mov	r31, r0
	estado = 0;

	while (1) // Bucle infinito
	{
		/* Motor */
		Vel = USART_Receive();
 13c:	0e 94 32 04 	call	0x864	; 0x864 <USART_Receive>
		if (Vel == 0x0A)
 140:	8a 30       	cpi	r24, 0x0A	; 10
 142:	29 f4       	brne	.+10     	; 0x14e <main+0xa8>
		{
			motor_avanza(USART_Receive());
 144:	0e 94 32 04 	call	0x864	; 0x864 <USART_Receive>
 148:	87 bd       	out	0x27, r24	; 39
			motor_retrocede(0);
 14a:	18 bc       	out	0x28, r1	; 40
 14c:	04 c0       	rjmp	.+8      	; 0x156 <main+0xb0>
		}
		else 
		{
			motor_avanza(0);
 14e:	17 bc       	out	0x27, r1	; 39
			motor_retrocede(USART_Receive());
 150:	0e 94 32 04 	call	0x864	; 0x864 <USART_Receive>
 154:	88 bd       	out	0x28, r24	; 40
		}
		
		/* Ultrasonido */
		distancia = GetDist();
 156:	0e 94 5b 02 	call	0x4b6	; 0x4b6 <GetDist>
 15a:	80 93 5c 01 	sts	0x015C, r24
		if (distancia < 0){distancia = 0;}
		else if (distancia >255){ distancia = 255;}
		if(distancia < 15)
 15e:	8f 30       	cpi	r24, 0x0F	; 15
 160:	50 f4       	brcc	.+20     	; 0x176 <main+0xd0>
		{
			Buzzer_On(NOTE_A4, 500);
 162:	88 eb       	ldi	r24, 0xB8	; 184
 164:	91 e0       	ldi	r25, 0x01	; 1
 166:	44 ef       	ldi	r20, 0xF4	; 244
 168:	51 e0       	ldi	r21, 0x01	; 1
 16a:	60 e0       	ldi	r22, 0x00	; 0
 16c:	70 e0       	ldi	r23, 0x00	; 0
 16e:	0e 94 83 02 	call	0x506	; 0x506 <Buzzer_On>
			motor_avanza(0);
 172:	17 bc       	out	0x27, r1	; 39
			motor_retrocede(0);
 174:	18 bc       	out	0x28, r1	; 40
		}
		
		/* Estados*/
		switch (estado)
 176:	80 91 5d 01 	lds	r24, 0x015D
 17a:	81 30       	cpi	r24, 0x01	; 1
 17c:	91 f0       	breq	.+36     	; 0x1a2 <main+0xfc>
 17e:	81 30       	cpi	r24, 0x01	; 1
 180:	18 f0       	brcs	.+6      	; 0x188 <main+0xe2>
 182:	82 30       	cpi	r24, 0x02	; 2
 184:	b9 f5       	brne	.+110    	; 0x1f4 <main+0x14e>
 186:	20 c0       	rjmp	.+64     	; 0x1c8 <main+0x122>
		{
			case 0:
				/* Imprime en LCD */
				LCD_Cursor_Up();
 188:	80 e8       	ldi	r24, 0x80	; 128
 18a:	0e 94 a8 01 	call	0x350	; 0x350 <LCD_cmd>
				LCD_WriteString("  Bienvenidos!  ");
 18e:	c6 01       	movw	r24, r12
 190:	0e 94 da 01 	call	0x3b4	; 0x3b4 <LCD_WriteString>
				LCD_Cursor_Down();
 194:	80 ec       	ldi	r24, 0xC0	; 192
 196:	0e 94 a8 01 	call	0x350	; 0x350 <LCD_cmd>
				LCD_WriteString("    a UTEC ");
 19a:	c5 01       	movw	r24, r10
 19c:	0e 94 da 01 	call	0x3b4	; 0x3b4 <LCD_WriteString>
				break;
 1a0:	29 c0       	rjmp	.+82     	; 0x1f4 <main+0x14e>
			case 1:
			
				/* Calcula el porcentaje de la bateria */
				lee_bateria();
 1a2:	0e 94 88 01 	call	0x310	; 0x310 <lee_bateria>
				/* Imprime en LCD */
				LCD_Cursor_Up();
 1a6:	80 e8       	ldi	r24, 0x80	; 128
 1a8:	0e 94 a8 01 	call	0x350	; 0x350 <LCD_cmd>
				LCD_WriteString("Nivel:          ");
 1ac:	ce 01       	movw	r24, r28
 1ae:	0e 94 da 01 	call	0x3b4	; 0x3b4 <LCD_WriteString>
				LCD_Cursor_Down();
 1b2:	80 ec       	ldi	r24, 0xC0	; 192
 1b4:	0e 94 a8 01 	call	0x350	; 0x350 <LCD_cmd>
				LCD_WriteInt(bateria_p);
 1b8:	d8 01       	movw	r26, r16
 1ba:	8c 91       	ld	r24, X
 1bc:	0e 94 27 02 	call	0x44e	; 0x44e <LCD_WriteInt>
				LCD_WriteString(" %      ");
 1c0:	c7 01       	movw	r24, r14
 1c2:	0e 94 da 01 	call	0x3b4	; 0x3b4 <LCD_WriteString>
				
				break;
 1c6:	16 c0       	rjmp	.+44     	; 0x1f4 <main+0x14e>
			case 2:
				/* Imprime en LCD */
				LCD_Cursor_Up();
 1c8:	80 e8       	ldi	r24, 0x80	; 128
 1ca:	0e 94 a8 01 	call	0x350	; 0x350 <LCD_cmd>
				LCD_WriteString("Distancia:    ");
 1ce:	c4 01       	movw	r24, r8
 1d0:	0e 94 da 01 	call	0x3b4	; 0x3b4 <LCD_WriteString>
				LCD_Cursor_Down();
 1d4:	80 ec       	ldi	r24, 0xC0	; 192
 1d6:	0e 94 a8 01 	call	0x350	; 0x350 <LCD_cmd>
				if (distancia <30)
 1da:	80 91 5c 01 	lds	r24, 0x015C
 1de:	8e 31       	cpi	r24, 0x1E	; 30
 1e0:	30 f4       	brcc	.+12     	; 0x1ee <main+0x148>
				{
					LCD_WriteInt(distancia);
 1e2:	0e 94 27 02 	call	0x44e	; 0x44e <LCD_WriteInt>
					LCD_WriteString(" cm    ");
 1e6:	c2 01       	movw	r24, r4
 1e8:	0e 94 da 01 	call	0x3b4	; 0x3b4 <LCD_WriteString>
 1ec:	03 c0       	rjmp	.+6      	; 0x1f4 <main+0x14e>
				}
				else
				{
					LCD_WriteString(" > 30 cm    ");
 1ee:	c3 01       	movw	r24, r6
 1f0:	0e 94 da 01 	call	0x3b4	; 0x3b4 <LCD_WriteString>
	#else
		//round up by default
		__ticks_dc = (uint32_t)(ceil(fabs(__tmp)));
	#endif

	__builtin_avr_delay_cycles(__ticks_dc);
 1f4:	8f ed       	ldi	r24, 0xDF	; 223
 1f6:	92 e2       	ldi	r25, 0x22	; 34
 1f8:	a2 e0       	ldi	r26, 0x02	; 2
 1fa:	81 50       	subi	r24, 0x01	; 1
 1fc:	90 40       	sbci	r25, 0x00	; 0
 1fe:	a0 40       	sbci	r26, 0x00	; 0
 200:	e1 f7       	brne	.-8      	; 0x1fa <main+0x154>
 202:	00 c0       	rjmp	.+0      	; 0x204 <main+0x15e>
 204:	00 00       	nop
 206:	9a cf       	rjmp	.-204    	; 0x13c <main+0x96>

00000208 <__vector_1>:
/*** Interrupciones ***/
/**********************/

/* INT0 cambia de estado para mostrar la pantalla de LCD*/
ISR(INT0_vect)
{
 208:	1f 92       	push	r1
 20a:	0f 92       	push	r0
 20c:	0f b6       	in	r0, 0x3f	; 63
 20e:	0f 92       	push	r0
 210:	11 24       	eor	r1, r1
 212:	2f 93       	push	r18
 214:	3f 93       	push	r19
 216:	4f 93       	push	r20
 218:	5f 93       	push	r21
 21a:	6f 93       	push	r22
 21c:	7f 93       	push	r23
 21e:	8f 93       	push	r24
 220:	9f 93       	push	r25
 222:	af 93       	push	r26
 224:	bf 93       	push	r27
 226:	ef 93       	push	r30
 228:	ff 93       	push	r31
	
	LCD_Clear();
 22a:	0e 94 46 02 	call	0x48c	; 0x48c <LCD_Clear>
	if (estado ==2)
 22e:	80 91 5d 01 	lds	r24, 0x015D
 232:	82 30       	cpi	r24, 0x02	; 2
 234:	19 f4       	brne	.+6      	; 0x23c <__vector_1+0x34>
		estado = 0;
 236:	10 92 5d 01 	sts	0x015D, r1
 23a:	03 c0       	rjmp	.+6      	; 0x242 <__vector_1+0x3a>
	else
		estado++;
 23c:	8f 5f       	subi	r24, 0xFF	; 255
 23e:	80 93 5d 01 	sts	0x015D, r24
		
}
 242:	ff 91       	pop	r31
 244:	ef 91       	pop	r30
 246:	bf 91       	pop	r27
 248:	af 91       	pop	r26
 24a:	9f 91       	pop	r25
 24c:	8f 91       	pop	r24
 24e:	7f 91       	pop	r23
 250:	6f 91       	pop	r22
 252:	5f 91       	pop	r21
 254:	4f 91       	pop	r20
 256:	3f 91       	pop	r19
 258:	2f 91       	pop	r18
 25a:	0f 90       	pop	r0
 25c:	0f be       	out	0x3f, r0	; 63
 25e:	0f 90       	pop	r0
 260:	1f 90       	pop	r1
 262:	18 95       	reti

00000264 <__vector_21>:

/* INT0 es el trigger para empezar el ADC. Cuando está listo, modifica el PWM y prepara el valor para el LCD*/
ISR(ADC_vect)
{
 264:	1f 92       	push	r1
 266:	0f 92       	push	r0
 268:	0f b6       	in	r0, 0x3f	; 63
 26a:	0f 92       	push	r0
 26c:	11 24       	eor	r1, r1
 26e:	2f 93       	push	r18
 270:	3f 93       	push	r19
 272:	4f 93       	push	r20
 274:	5f 93       	push	r21
 276:	6f 93       	push	r22
 278:	7f 93       	push	r23
 27a:	8f 93       	push	r24
 27c:	9f 93       	push	r25
 27e:	af 93       	push	r26
 280:	bf 93       	push	r27
	bateriaLecturaAdc = ADC;
 282:	20 91 78 00 	lds	r18, 0x0078
 286:	30 91 79 00 	lds	r19, 0x0079
 28a:	30 93 76 01 	sts	0x0176, r19
 28e:	20 93 75 01 	sts	0x0175, r18
	bateria_mV = bateriaLecturaAdc*43/40;
 292:	4b e2       	ldi	r20, 0x2B	; 43
 294:	50 e0       	ldi	r21, 0x00	; 0
 296:	24 9f       	mul	r18, r20
 298:	c0 01       	movw	r24, r0
 29a:	25 9f       	mul	r18, r21
 29c:	90 0d       	add	r25, r0
 29e:	34 9f       	mul	r19, r20
 2a0:	90 0d       	add	r25, r0
 2a2:	11 24       	eor	r1, r1
 2a4:	68 e2       	ldi	r22, 0x28	; 40
 2a6:	70 e0       	ldi	r23, 0x00	; 0
 2a8:	0e 94 63 04 	call	0x8c6	; 0x8c6 <__udivmodhi4>
 2ac:	70 93 78 01 	sts	0x0178, r23
 2b0:	60 93 77 01 	sts	0x0177, r22
	bateria_p = bateria_mV/11;
 2b4:	cb 01       	movw	r24, r22
 2b6:	6b e0       	ldi	r22, 0x0B	; 11
 2b8:	70 e0       	ldi	r23, 0x00	; 0
 2ba:	0e 94 63 04 	call	0x8c6	; 0x8c6 <__udivmodhi4>
 2be:	70 93 74 01 	sts	0x0174, r23
 2c2:	60 93 73 01 	sts	0x0173, r22
	
 2c6:	bf 91       	pop	r27
 2c8:	af 91       	pop	r26
 2ca:	9f 91       	pop	r25
 2cc:	8f 91       	pop	r24
 2ce:	7f 91       	pop	r23
 2d0:	6f 91       	pop	r22
 2d2:	5f 91       	pop	r21
 2d4:	4f 91       	pop	r20
 2d6:	3f 91       	pop	r19
 2d8:	2f 91       	pop	r18
 2da:	0f 90       	pop	r0
 2dc:	0f be       	out	0x3f, r0	; 63
 2de:	0f 90       	pop	r0
 2e0:	1f 90       	pop	r1
 2e2:	18 95       	reti

000002e4 <ADC_Init>:


void ADC_Init(void)
{
	/* Voltage Reference = 1.1V ; PC1 */
	ADMUX |= (3<<REFS0)|(1<<MUX0);
 2e4:	ec e7       	ldi	r30, 0x7C	; 124
 2e6:	f0 e0       	ldi	r31, 0x00	; 0
 2e8:	80 81       	ld	r24, Z
 2ea:	81 6c       	ori	r24, 0xC1	; 193
 2ec:	80 83       	st	Z, r24
	/* Enable, Start Conversion, Auto Trigger Enable, ADC Interrupt, Prescaler = 8 (125 kHz)*/
	ADCSRA |= (1<<ADEN)|(1<<ADSC)|(1<<ADATE)|(1<<ADIE)|(3<<ADPS0);
 2ee:	ea e7       	ldi	r30, 0x7A	; 122
 2f0:	f0 e0       	ldi	r31, 0x00	; 0
 2f2:	80 81       	ld	r24, Z
 2f4:	8b 6e       	ori	r24, 0xEB	; 235
 2f6:	80 83       	st	Z, r24
	/* Trigger = INT0 */
	ADCSRB |= (2<<ADTS0);
 2f8:	eb e7       	ldi	r30, 0x7B	; 123
 2fa:	f0 e0       	ldi	r31, 0x00	; 0
 2fc:	80 81       	ld	r24, Z
 2fe:	82 60       	ori	r24, 0x02	; 2
 300:	80 83       	st	Z, r24
	/* Rising Edge */
	EICRA |= (3<<ISC00);
 302:	e9 e6       	ldi	r30, 0x69	; 105
 304:	f0 e0       	ldi	r31, 0x00	; 0
 306:	80 81       	ld	r24, Z
 308:	83 60       	ori	r24, 0x03	; 3
 30a:	80 83       	st	Z, r24
	/* Activa INT0*/
	EIMSK |= (1<< INT0);
 30c:	e8 9a       	sbi	0x1d, 0	; 29
}
 30e:	08 95       	ret

00000310 <lee_bateria>:

void lee_bateria()
{
	/*Activa ADC*/
	ADCSRA |= (1<<ADSC);
 310:	ea e7       	ldi	r30, 0x7A	; 122
 312:	f0 e0       	ldi	r31, 0x00	; 0
 314:	80 81       	ld	r24, Z
 316:	80 64       	ori	r24, 0x40	; 64
 318:	80 83       	st	Z, r24
}
 31a:	08 95       	ret

0000031c <Motor_Init>:

void Motor_Init()
{
	cbi(PORTD, 6);
 31c:	5e 98       	cbi	0x0b, 6	; 11
	cbi(PORTD, 5);
 31e:	5d 98       	cbi	0x0b, 5	; 11
	sbi(DDRD, 6);		/* Motor adelante	= salida(PD6)*/
 320:	56 9a       	sbi	0x0a, 6	; 10
	sbi(DDRD, 5);		/* Motor atras		= salida(PD5)*/
 322:	55 9a       	sbi	0x0a, 5	; 10
	/* Timer 0 */
	TCCR0A |= (3 << WGM00);		// Fast PWM
 324:	84 b5       	in	r24, 0x24	; 36
 326:	83 60       	ori	r24, 0x03	; 3
 328:	84 bd       	out	0x24, r24	; 36
	TCCR0B |= (1 << CS01);		// Preescalador = 8
 32a:	85 b5       	in	r24, 0x25	; 37
 32c:	82 60       	ori	r24, 0x02	; 2
 32e:	85 bd       	out	0x25, r24	; 37
	TCNT0 = 0;					// Reinicia el timer
 330:	16 bc       	out	0x26, r1	; 38
	/* Avanza */
	TCCR0A |= (1 << COM0A1)|(1 << COM0B1);	// Clear OC0A y OC0B (Avanzar y retroceder)
 332:	84 b5       	in	r24, 0x24	; 36
 334:	80 6a       	ori	r24, 0xA0	; 160
 336:	84 bd       	out	0x24, r24	; 36
	OCR0A = 0;
 338:	17 bc       	out	0x27, r1	; 39
	OCR0B = 0;
 33a:	18 bc       	out	0x28, r1	; 40
}
 33c:	08 95       	ret

0000033e <Toggle_EN>:


/*Función de envío:
	-Permite el envió de data al activar y desactivar el ENABLE*/
void Toggle_EN (void) {
	LCD_BUS |= (1<<EN);
 33e:	2d 9a       	sbi	0x05, 5	; 5
	#else
		//round up by default
		__ticks_dc = (uint32_t)(ceil(fabs(__tmp)));
	#endif

	__builtin_avr_delay_cycles(__ticks_dc);
 340:	8a ef       	ldi	r24, 0xFA	; 250
 342:	8a 95       	dec	r24
 344:	f1 f7       	brne	.-4      	; 0x342 <Toggle_EN+0x4>
	_delay_us(750);
	LCD_BUS &=~((1<<EN));
 346:	2d 98       	cbi	0x05, 5	; 5
 348:	8a ef       	ldi	r24, 0xFA	; 250
 34a:	8a 95       	dec	r24
 34c:	f1 f7       	brne	.-4      	; 0x34a <Toggle_EN+0xc>
	_delay_us(750);
	return;
}
 34e:	08 95       	ret

00000350 <LCD_cmd>:

/*Función de escritura de comandos:
	-Permite escribir comandos al LCD*/
void LCD_cmd(uint8_t CMD){
 350:	1f 93       	push	r17
 352:	18 2f       	mov	r17, r24
	LCD_BUS &=~((1<<RS)); //Habilita uso de comandos
 354:	2c 98       	cbi	0x05, 4	; 5
	LCD_BUS &= 0xF0;	
 356:	85 b1       	in	r24, 0x05	; 5
 358:	80 7f       	andi	r24, 0xF0	; 240
 35a:	85 b9       	out	0x05, r24	; 5
	LCD_BUS |= ((CMD & 0xF0)>>4); //Mandar nibble superior
 35c:	85 b1       	in	r24, 0x05	; 5
 35e:	91 2f       	mov	r25, r17
 360:	92 95       	swap	r25
 362:	9f 70       	andi	r25, 0x0F	; 15
 364:	89 2b       	or	r24, r25
 366:	85 b9       	out	0x05, r24	; 5
	Toggle_EN();
 368:	0e 94 9f 01 	call	0x33e	; 0x33e <Toggle_EN>
	LCD_BUS &= 0xF0;
 36c:	85 b1       	in	r24, 0x05	; 5
 36e:	80 7f       	andi	r24, 0xF0	; 240
 370:	85 b9       	out	0x05, r24	; 5
	LCD_BUS |= CMD & 0x0F; //Mandar nibble inferior
 372:	85 b1       	in	r24, 0x05	; 5
 374:	1f 70       	andi	r17, 0x0F	; 15
 376:	18 2b       	or	r17, r24
 378:	15 b9       	out	0x05, r17	; 5
	Toggle_EN();
 37a:	0e 94 9f 01 	call	0x33e	; 0x33e <Toggle_EN>
	return;
}
 37e:	1f 91       	pop	r17
 380:	08 95       	ret

00000382 <LCD_Write>:

/*Función de escritura de caracter:
	-Permite escribir un caracter en la pantalla del LCD*/
void LCD_Write (char LCDCHAR){
 382:	1f 93       	push	r17
 384:	18 2f       	mov	r17, r24
	LCD_BUS |= (1<<RS);
 386:	2c 9a       	sbi	0x05, 4	; 5
	LCD_BUS &= 0xF0;	
 388:	85 b1       	in	r24, 0x05	; 5
 38a:	80 7f       	andi	r24, 0xF0	; 240
 38c:	85 b9       	out	0x05, r24	; 5
	LCD_BUS |= ((LCDCHAR&0xF0)>>4); //Mandar nibble superior
 38e:	85 b1       	in	r24, 0x05	; 5
 390:	91 2f       	mov	r25, r17
 392:	92 95       	swap	r25
 394:	9f 70       	andi	r25, 0x0F	; 15
 396:	89 2b       	or	r24, r25
 398:	85 b9       	out	0x05, r24	; 5
	Toggle_EN();
 39a:	0e 94 9f 01 	call	0x33e	; 0x33e <Toggle_EN>
	LCD_BUS &= 0xF0;
 39e:	85 b1       	in	r24, 0x05	; 5
 3a0:	80 7f       	andi	r24, 0xF0	; 240
 3a2:	85 b9       	out	0x05, r24	; 5
	LCD_BUS |= LCDCHAR&0x0F; //Mandar nibble inferior
 3a4:	85 b1       	in	r24, 0x05	; 5
 3a6:	1f 70       	andi	r17, 0x0F	; 15
 3a8:	18 2b       	or	r17, r24
 3aa:	15 b9       	out	0x05, r17	; 5
	Toggle_EN();
 3ac:	0e 94 9f 01 	call	0x33e	; 0x33e <Toggle_EN>
	return;	
}
 3b0:	1f 91       	pop	r17
 3b2:	08 95       	ret

000003b4 <LCD_WriteString>:

/*Función de escritura de cadena de caracteres:
	-Permite escribir Strings*/
void LCD_WriteString (char *S){
 3b4:	cf 93       	push	r28
 3b6:	df 93       	push	r29
 3b8:	ec 01       	movw	r28, r24
	while (*S!='\0') {
 3ba:	88 81       	ld	r24, Y
 3bc:	88 23       	and	r24, r24
 3be:	31 f0       	breq	.+12     	; 0x3cc <LCD_WriteString+0x18>
	return;	
}

/*Función de escritura de cadena de caracteres:
	-Permite escribir Strings*/
void LCD_WriteString (char *S){
 3c0:	21 96       	adiw	r28, 0x01	; 1
	while (*S!='\0') {
		LCD_Write(*S);
 3c2:	0e 94 c1 01 	call	0x382	; 0x382 <LCD_Write>
}

/*Función de escritura de cadena de caracteres:
	-Permite escribir Strings*/
void LCD_WriteString (char *S){
	while (*S!='\0') {
 3c6:	89 91       	ld	r24, Y+
 3c8:	88 23       	and	r24, r24
 3ca:	d9 f7       	brne	.-10     	; 0x3c2 <LCD_WriteString+0xe>
		LCD_Write(*S);
		S++;
	}
	return;
}
 3cc:	df 91       	pop	r29
 3ce:	cf 91       	pop	r28
 3d0:	08 95       	ret

000003d2 <LCD_Init>:


/*Función de configuración de puertos del LCD 
	-Configura los puertos del LCD */
void LCD_Init(){
	LCD_DDR = 0xFF;
 3d2:	8f ef       	ldi	r24, 0xFF	; 255
 3d4:	84 b9       	out	0x04, r24	; 4
	return;
}
 3d6:	08 95       	ret

000003d8 <LCD_Start>:

/*Función de configuración del LCD:
	-Configura el LCD para funcionar mediante 4bits*/
void LCD_Start(void){
	LCD_BUS &= 0xF0;
 3d8:	85 b1       	in	r24, 0x05	; 5
 3da:	80 7f       	andi	r24, 0xF0	; 240
 3dc:	85 b9       	out	0x05, r24	; 5
	//Secuencia para habilitar LCD 4bits
	LCD_BUS |= 0x03;
 3de:	85 b1       	in	r24, 0x05	; 5
 3e0:	83 60       	ori	r24, 0x03	; 3
 3e2:	85 b9       	out	0x05, r24	; 5
	Toggle_EN();
 3e4:	0e 94 9f 01 	call	0x33e	; 0x33e <Toggle_EN>
	#else
		//round up by default
		__ticks_dc = (uint32_t)(ceil(fabs(__tmp)));
	#endif

	__builtin_avr_delay_cycles(__ticks_dc);
 3e8:	8b ed       	ldi	r24, 0xDB	; 219
 3ea:	95 e0       	ldi	r25, 0x05	; 5
 3ec:	01 97       	sbiw	r24, 0x01	; 1
 3ee:	f1 f7       	brne	.-4      	; 0x3ec <LCD_Start+0x14>
 3f0:	00 c0       	rjmp	.+0      	; 0x3f2 <LCD_Start+0x1a>
 3f2:	00 00       	nop
	_delay_ms(6);
	LCD_BUS &= 0xF0;
 3f4:	85 b1       	in	r24, 0x05	; 5
 3f6:	80 7f       	andi	r24, 0xF0	; 240
 3f8:	85 b9       	out	0x05, r24	; 5
	LCD_BUS |= 0x03;
 3fa:	85 b1       	in	r24, 0x05	; 5
 3fc:	83 60       	ori	r24, 0x03	; 3
 3fe:	85 b9       	out	0x05, r24	; 5
	Toggle_EN();
 400:	0e 94 9f 01 	call	0x33e	; 0x33e <Toggle_EN>
	#else
		//round up by default
		__ticks_dc = (uint32_t)(ceil(fabs(__tmp)));
	#endif

	__builtin_avr_delay_cycles(__ticks_dc);
 404:	95 e1       	ldi	r25, 0x15	; 21
 406:	9a 95       	dec	r25
 408:	f1 f7       	brne	.-4      	; 0x406 <LCD_Start+0x2e>
 40a:	00 00       	nop
	_delay_us(64); //?
	LCD_BUS &= 0xF0;
 40c:	85 b1       	in	r24, 0x05	; 5
 40e:	80 7f       	andi	r24, 0xF0	; 240
 410:	85 b9       	out	0x05, r24	; 5
	LCD_BUS |=0x03;
 412:	85 b1       	in	r24, 0x05	; 5
 414:	83 60       	ori	r24, 0x03	; 3
 416:	85 b9       	out	0x05, r24	; 5
	Toggle_EN();
 418:	0e 94 9f 01 	call	0x33e	; 0x33e <Toggle_EN>
	LCD_BUS &= 0xF0;
 41c:	85 b1       	in	r24, 0x05	; 5
 41e:	80 7f       	andi	r24, 0xF0	; 240
 420:	85 b9       	out	0x05, r24	; 5
	LCD_BUS |= 0x02;
 422:	29 9a       	sbi	0x05, 1	; 5
	Toggle_EN();
 424:	0e 94 9f 01 	call	0x33e	; 0x33e <Toggle_EN>
	#else
		//round up by default
		__ticks_dc = (uint32_t)(ceil(fabs(__tmp)));
	#endif

	__builtin_avr_delay_cycles(__ticks_dc);
 428:	83 ef       	ldi	r24, 0xF3	; 243
 42a:	91 e0       	ldi	r25, 0x01	; 1
 42c:	01 97       	sbiw	r24, 0x01	; 1
 42e:	f1 f7       	brne	.-4      	; 0x42c <LCD_Start+0x54>
 430:	00 c0       	rjmp	.+0      	; 0x432 <LCD_Start+0x5a>
 432:	00 00       	nop
	_delay_ms(2);
	//Fin
	LCD_cmd(0x28); //4bits
 434:	88 e2       	ldi	r24, 0x28	; 40
 436:	0e 94 a8 01 	call	0x350	; 0x350 <LCD_cmd>
	LCD_cmd(0x0C);
 43a:	8c e0       	ldi	r24, 0x0C	; 12
 43c:	0e 94 a8 01 	call	0x350	; 0x350 <LCD_cmd>
	LCD_cmd(0x01); //Borrar LCD
 440:	81 e0       	ldi	r24, 0x01	; 1
 442:	0e 94 a8 01 	call	0x350	; 0x350 <LCD_cmd>
	LCD_cmd(0x06);
 446:	86 e0       	ldi	r24, 0x06	; 6
 448:	0e 94 a8 01 	call	0x350	; 0x350 <LCD_cmd>
	return;
}
 44c:	08 95       	ret

0000044e <LCD_WriteInt>:

/*Función para escribir Integers en LCD:
	-Utiliza la función "sprintf" para convertir entero a string*/
void LCD_WriteInt (int8_t Num){
 44e:	0f 93       	push	r16
 450:	1f 93       	push	r17
 452:	df 93       	push	r29
 454:	cf 93       	push	r28
 456:	00 d0       	rcall	.+0      	; 0x458 <LCD_WriteInt+0xa>
 458:	00 d0       	rcall	.+0      	; 0x45a <LCD_WriteInt+0xc>
 45a:	cd b7       	in	r28, 0x3d	; 61
 45c:	de b7       	in	r29, 0x3e	; 62
	char arraytemp[4];
	itoa(Num, arraytemp, 10);
 45e:	99 27       	eor	r25, r25
 460:	87 fd       	sbrc	r24, 7
 462:	90 95       	com	r25
 464:	8e 01       	movw	r16, r28
 466:	0f 5f       	subi	r16, 0xFF	; 255
 468:	1f 4f       	sbci	r17, 0xFF	; 255
 46a:	b8 01       	movw	r22, r16
 46c:	4a e0       	ldi	r20, 0x0A	; 10
 46e:	50 e0       	ldi	r21, 0x00	; 0
 470:	0e 94 99 04 	call	0x932	; 0x932 <itoa>
	LCD_WriteString(arraytemp);
 474:	c8 01       	movw	r24, r16
 476:	0e 94 da 01 	call	0x3b4	; 0x3b4 <LCD_WriteString>
	return;
}
 47a:	0f 90       	pop	r0
 47c:	0f 90       	pop	r0
 47e:	0f 90       	pop	r0
 480:	0f 90       	pop	r0
 482:	cf 91       	pop	r28
 484:	df 91       	pop	r29
 486:	1f 91       	pop	r17
 488:	0f 91       	pop	r16
 48a:	08 95       	ret

0000048c <LCD_Clear>:

/*Función para limpiar LCD:*/
void LCD_Clear (void) {
	LCD_cmd(0x01); //Borrar LCD	
 48c:	81 e0       	ldi	r24, 0x01	; 1
 48e:	0e 94 a8 01 	call	0x350	; 0x350 <LCD_cmd>
	return;
 492:	08 95       	ret

00000494 <Ultrasonic_Init>:
volatile int32_t timer2_toggle_count;

/*Función para configurar el Ultrasonido*/
void Ultrasonic_Init(void) {
	/* Trigger = Salida (1), Echo = Entrada(0)*/ 
	sbi(DDR_Ultra, Trig);
 494:	3c 9a       	sbi	0x07, 4	; 7
	
	/* Interrupción por cambio de estado */
	sbi(PCICR, 1);		/* Puerto C [7:0] */
 496:	e8 e6       	ldi	r30, 0x68	; 104
 498:	f0 e0       	ldi	r31, 0x00	; 0
 49a:	80 81       	ld	r24, Z
 49c:	82 60       	ori	r24, 0x02	; 2
 49e:	80 83       	st	Z, r24
	sbi(PCMSK1, Echo);	/* Solo el pin ECHO */
 4a0:	ec e6       	ldi	r30, 0x6C	; 108
 4a2:	f0 e0       	ldi	r31, 0x00	; 0
 4a4:	80 81       	ld	r24, Z
 4a6:	80 62       	ori	r24, 0x20	; 32
 4a8:	80 83       	st	Z, r24
	sei();				/* Habilita interrupciones IRQs */
 4aa:	78 94       	sei
	/* Reinicia Timer */
	TCNT1 = 0x0000;
 4ac:	10 92 85 00 	sts	0x0085, r1
 4b0:	10 92 84 00 	sts	0x0084, r1
	return;
}
 4b4:	08 95       	ret

000004b6 <GetDist>:

/*Función para calcular la distancia*/
uint16_t GetDist (void) {
	uint16_t Tiempo;
	cbi(PORT_Ultra,Trig);		/* Pone Trig en bajo */
 4b6:	44 98       	cbi	0x08, 4	; 8
	sbi(PORT_Ultra,Trig);		/* Pone Trig en alto */
 4b8:	44 9a       	sbi	0x08, 4	; 8
	#else
		//round up by default
		__ticks_dc = (uint32_t)(ceil(fabs(__tmp)));
	#endif

	__builtin_avr_delay_cycles(__ticks_dc);
 4ba:	83 e0       	ldi	r24, 0x03	; 3
 4bc:	8a 95       	dec	r24
 4be:	f1 f7       	brne	.-4      	; 0x4bc <GetDist+0x6>
 4c0:	00 c0       	rjmp	.+0      	; 0x4c2 <GetDist+0xc>
	_delay_us(11);				/* Pulso en Trig por más de 10us */
	cbi(PORT_Ultra, Trig);		/* Pone Trig en bajo */
 4c2:	44 98       	cbi	0x08, 4	; 8
		
	while (PIN_Ultra & (0<<Echo)) {}	
 4c4:	86 b1       	in	r24, 0x06	; 6
	while (PIN_Ultra & (1<<Echo)) {}
 4c6:	35 99       	sbic	0x06, 5	; 6
 4c8:	fe cf       	rjmp	.-4      	; 0x4c6 <GetDist+0x10>
	Tiempo = TCNT1/7;			/*Calculo de la distancia en cm (entre 116) */
 4ca:	e4 e8       	ldi	r30, 0x84	; 132
 4cc:	f0 e0       	ldi	r31, 0x00	; 0
 4ce:	80 81       	ld	r24, Z
 4d0:	91 81       	ldd	r25, Z+1	; 0x01
	
	TCCR1B = 0x00;		/* Detiene el timer (Presc = 0)*/
 4d2:	10 92 81 00 	sts	0x0081, r1
	TCNT1 = 0x0000;		/* Reinicia la cuenta del timer */
 4d6:	11 82       	std	Z+1, r1	; 0x01
 4d8:	10 82       	st	Z, r1
	_delay_us(11);				/* Pulso en Trig por más de 10us */
	cbi(PORT_Ultra, Trig);		/* Pone Trig en bajo */
		
	while (PIN_Ultra & (0<<Echo)) {}	
	while (PIN_Ultra & (1<<Echo)) {}
	Tiempo = TCNT1/7;			/*Calculo de la distancia en cm (entre 116) */
 4da:	67 e0       	ldi	r22, 0x07	; 7
 4dc:	70 e0       	ldi	r23, 0x00	; 0
 4de:	0e 94 63 04 	call	0x8c6	; 0x8c6 <__udivmodhi4>
	
	TCCR1B = 0x00;		/* Detiene el timer (Presc = 0)*/
	TCNT1 = 0x0000;		/* Reinicia la cuenta del timer */
	return Tiempo;
}
 4e2:	86 2f       	mov	r24, r22
 4e4:	97 2f       	mov	r25, r23
 4e6:	08 95       	ret

000004e8 <Buzzer_Init>:

/*Función para configurar el Buzzer*/
void Buzzer_Init(void)
{
	/* Timer 2. CTC */
	TCCR2A |= (1 << WGM21);
 4e8:	e0 eb       	ldi	r30, 0xB0	; 176
 4ea:	f0 e0       	ldi	r31, 0x00	; 0
 4ec:	80 81       	ld	r24, Z
 4ee:	82 60       	ori	r24, 0x02	; 2
 4f0:	80 83       	st	Z, r24
	/* Preescalador = 1 */
	TCCR2B |= (1 << CS20);
 4f2:	e1 eb       	ldi	r30, 0xB1	; 177
 4f4:	f0 e0       	ldi	r31, 0x00	; 0
 4f6:	80 81       	ld	r24, Z
 4f8:	81 60       	ori	r24, 0x01	; 1
 4fa:	80 83       	st	Z, r24
	TCNT2 = 0;
 4fc:	10 92 b2 00 	sts	0x00B2, r1
	OCR2B = 0;
 500:	10 92 b4 00 	sts	0x00B4, r1
	return;
}
 504:	08 95       	ret

00000506 <Buzzer_On>:

/* Función que enciende el Buzzer */
void Buzzer_On(uint16_t freq, uint32_t duration)
{
 506:	2f 92       	push	r2
 508:	3f 92       	push	r3
 50a:	4f 92       	push	r4
 50c:	5f 92       	push	r5
 50e:	6f 92       	push	r6
 510:	7f 92       	push	r7
 512:	8f 92       	push	r8
 514:	9f 92       	push	r9
 516:	af 92       	push	r10
 518:	bf 92       	push	r11
 51a:	cf 92       	push	r12
 51c:	df 92       	push	r13
 51e:	ef 92       	push	r14
 520:	ff 92       	push	r15
 522:	0f 93       	push	r16
 524:	1f 93       	push	r17
 526:	cf 93       	push	r28
 528:	df 93       	push	r29
 52a:	ec 01       	movw	r28, r24
 52c:	1a 01       	movw	r2, r20
 52e:	2b 01       	movw	r4, r22
	uint8_t preesc = 0b001;
	int32_t toggle_count = 0;
	uint32_t ocr = 0;
	cbi(PORT_Buzzer, P_Buzzer);		/* Pone en bajo PD6 */
 530:	5b 98       	cbi	0x0b, 3	; 11
	sbi(DDR_Buzzer, P_Buzzer);		/* Buzzer => salida(PD6)*/
 532:	53 9a       	sbi	0x0a, 3	; 10
	
	/* Cálculo del pre escalador */
	ocr = F_CPU /freq/2 - 1;
 534:	5c 01       	movw	r10, r24
 536:	cc 24       	eor	r12, r12
 538:	dd 24       	eor	r13, r13
 53a:	60 e2       	ldi	r22, 0x20	; 32
 53c:	71 ea       	ldi	r23, 0xA1	; 161
 53e:	87 e0       	ldi	r24, 0x07	; 7
 540:	90 e0       	ldi	r25, 0x00	; 0
 542:	a6 01       	movw	r20, r12
 544:	95 01       	movw	r18, r10
 546:	0e 94 77 04 	call	0x8ee	; 0x8ee <__udivmodsi4>
 54a:	39 01       	movw	r6, r18
 54c:	4a 01       	movw	r8, r20
 54e:	79 01       	movw	r14, r18
 550:	8a 01       	movw	r16, r20
 552:	08 94       	sec
 554:	e1 08       	sbc	r14, r1
 556:	f1 08       	sbc	r15, r1
 558:	01 09       	sbc	r16, r1
 55a:	11 09       	sbc	r17, r1
	preesc = 0b001;		/* clk/1 */
	if ( ocr > 255)
 55c:	8f ef       	ldi	r24, 0xFF	; 255
 55e:	e8 16       	cp	r14, r24
 560:	f1 04       	cpc	r15, r1
 562:	01 05       	cpc	r16, r1
 564:	11 05       	cpc	r17, r1
 566:	09 f0       	breq	.+2      	; 0x56a <Buzzer_On+0x64>
 568:	08 f4       	brcc	.+2      	; 0x56c <Buzzer_On+0x66>
 56a:	7d c0       	rjmp	.+250    	; 0x666 <Buzzer_On+0x160>
	{
		ocr = F_CPU /freq/2/8 - 1;
 56c:	64 e2       	ldi	r22, 0x24	; 36
 56e:	74 ef       	ldi	r23, 0xF4	; 244
 570:	80 e0       	ldi	r24, 0x00	; 0
 572:	90 e0       	ldi	r25, 0x00	; 0
 574:	a6 01       	movw	r20, r12
 576:	95 01       	movw	r18, r10
 578:	0e 94 77 04 	call	0x8ee	; 0x8ee <__udivmodsi4>
 57c:	79 01       	movw	r14, r18
 57e:	8a 01       	movw	r16, r20
 580:	08 94       	sec
 582:	e1 08       	sbc	r14, r1
 584:	f1 08       	sbc	r15, r1
 586:	01 09       	sbc	r16, r1
 588:	11 09       	sbc	r17, r1
		preesc = 0b010;		/* clk/8 */
		
		if (ocr > 255)
 58a:	8f ef       	ldi	r24, 0xFF	; 255
 58c:	e8 16       	cp	r14, r24
 58e:	f1 04       	cpc	r15, r1
 590:	01 05       	cpc	r16, r1
 592:	11 05       	cpc	r17, r1
 594:	09 f0       	breq	.+2      	; 0x598 <Buzzer_On+0x92>
 596:	08 f4       	brcc	.+2      	; 0x59a <Buzzer_On+0x94>
 598:	68 c0       	rjmp	.+208    	; 0x66a <Buzzer_On+0x164>
		{
			ocr = F_CPU /freq/2/32 - 1;
 59a:	69 e0       	ldi	r22, 0x09	; 9
 59c:	7d e3       	ldi	r23, 0x3D	; 61
 59e:	80 e0       	ldi	r24, 0x00	; 0
 5a0:	90 e0       	ldi	r25, 0x00	; 0
 5a2:	a6 01       	movw	r20, r12
 5a4:	95 01       	movw	r18, r10
 5a6:	0e 94 77 04 	call	0x8ee	; 0x8ee <__udivmodsi4>
 5aa:	79 01       	movw	r14, r18
 5ac:	8a 01       	movw	r16, r20
 5ae:	08 94       	sec
 5b0:	e1 08       	sbc	r14, r1
 5b2:	f1 08       	sbc	r15, r1
 5b4:	01 09       	sbc	r16, r1
 5b6:	11 09       	sbc	r17, r1
			preesc = 0b011;		/* clk/32 */			
		}
		
		if (ocr > 255)
 5b8:	8f ef       	ldi	r24, 0xFF	; 255
 5ba:	e8 16       	cp	r14, r24
 5bc:	f1 04       	cpc	r15, r1
 5be:	01 05       	cpc	r16, r1
 5c0:	11 05       	cpc	r17, r1
 5c2:	09 f0       	breq	.+2      	; 0x5c6 <Buzzer_On+0xc0>
 5c4:	08 f4       	brcc	.+2      	; 0x5c8 <Buzzer_On+0xc2>
 5c6:	53 c0       	rjmp	.+166    	; 0x66e <Buzzer_On+0x168>
		{
			ocr = F_CPU /freq/2/64 - 1;
 5c8:	84 01       	movw	r16, r8
 5ca:	73 01       	movw	r14, r6
 5cc:	68 94       	set
 5ce:	15 f8       	bld	r1, 5
 5d0:	16 95       	lsr	r17
 5d2:	07 95       	ror	r16
 5d4:	f7 94       	ror	r15
 5d6:	e7 94       	ror	r14
 5d8:	16 94       	lsr	r1
 5da:	d1 f7       	brne	.-12     	; 0x5d0 <Buzzer_On+0xca>
 5dc:	08 94       	sec
 5de:	e1 08       	sbc	r14, r1
 5e0:	f1 08       	sbc	r15, r1
 5e2:	01 09       	sbc	r16, r1
 5e4:	11 09       	sbc	r17, r1
			preesc = 0b100;		/* clk/64 */
			
			if (ocr > 255)
 5e6:	8f ef       	ldi	r24, 0xFF	; 255
 5e8:	e8 16       	cp	r14, r24
 5ea:	f1 04       	cpc	r15, r1
 5ec:	01 05       	cpc	r16, r1
 5ee:	11 05       	cpc	r17, r1
 5f0:	09 f0       	breq	.+2      	; 0x5f4 <Buzzer_On+0xee>
 5f2:	08 f4       	brcc	.+2      	; 0x5f6 <Buzzer_On+0xf0>
 5f4:	3e c0       	rjmp	.+124    	; 0x672 <Buzzer_On+0x16c>
			{
				ocr = F_CPU /freq/2/128 - 1;
 5f6:	84 01       	movw	r16, r8
 5f8:	73 01       	movw	r14, r6
 5fa:	68 94       	set
 5fc:	16 f8       	bld	r1, 6
 5fe:	16 95       	lsr	r17
 600:	07 95       	ror	r16
 602:	f7 94       	ror	r15
 604:	e7 94       	ror	r14
 606:	16 94       	lsr	r1
 608:	d1 f7       	brne	.-12     	; 0x5fe <Buzzer_On+0xf8>
 60a:	08 94       	sec
 60c:	e1 08       	sbc	r14, r1
 60e:	f1 08       	sbc	r15, r1
 610:	01 09       	sbc	r16, r1
 612:	11 09       	sbc	r17, r1
				preesc = 0b101;		/* clk/128 */
			}
			if (ocr > 255)
 614:	8f ef       	ldi	r24, 0xFF	; 255
 616:	e8 16       	cp	r14, r24
 618:	f1 04       	cpc	r15, r1
 61a:	01 05       	cpc	r16, r1
 61c:	11 05       	cpc	r17, r1
 61e:	59 f1       	breq	.+86     	; 0x676 <Buzzer_On+0x170>
 620:	50 f1       	brcs	.+84     	; 0x676 <Buzzer_On+0x170>
			{
				ocr = F_CPU /freq/2/256 - 1;
 622:	11 27       	eor	r17, r17
 624:	09 2d       	mov	r16, r9
 626:	f8 2c       	mov	r15, r8
 628:	e7 2c       	mov	r14, r7
 62a:	08 94       	sec
 62c:	e1 08       	sbc	r14, r1
 62e:	f1 08       	sbc	r15, r1
 630:	01 09       	sbc	r16, r1
 632:	11 09       	sbc	r17, r1
				preesc = 0b110;		/* clk/256 */
				
				if (ocr > 255)
 634:	8f ef       	ldi	r24, 0xFF	; 255
 636:	e8 16       	cp	r14, r24
 638:	f1 04       	cpc	r15, r1
 63a:	01 05       	cpc	r16, r1
 63c:	11 05       	cpc	r17, r1
 63e:	e9 f0       	breq	.+58     	; 0x67a <Buzzer_On+0x174>
 640:	e0 f0       	brcs	.+56     	; 0x67a <Buzzer_On+0x174>
				{
					ocr = F_CPU /freq/2/1024 - 1;
 642:	84 01       	movw	r16, r8
 644:	73 01       	movw	r14, r6
 646:	0d 2e       	mov	r0, r29
 648:	da e0       	ldi	r29, 0x0A	; 10
 64a:	16 95       	lsr	r17
 64c:	07 95       	ror	r16
 64e:	f7 94       	ror	r15
 650:	e7 94       	ror	r14
 652:	da 95       	dec	r29
 654:	d1 f7       	brne	.-12     	; 0x64a <Buzzer_On+0x144>
 656:	d0 2d       	mov	r29, r0
 658:	08 94       	sec
 65a:	e1 08       	sbc	r14, r1
 65c:	f1 08       	sbc	r15, r1
 65e:	01 09       	sbc	r16, r1
 660:	11 09       	sbc	r17, r1
					preesc = 0b111;		/* clk/1024 */
 662:	87 e0       	ldi	r24, 0x07	; 7
 664:	0b c0       	rjmp	.+22     	; 0x67c <Buzzer_On+0x176>
	cbi(PORT_Buzzer, P_Buzzer);		/* Pone en bajo PD6 */
	sbi(DDR_Buzzer, P_Buzzer);		/* Buzzer => salida(PD6)*/
	
	/* Cálculo del pre escalador */
	ocr = F_CPU /freq/2 - 1;
	preesc = 0b001;		/* clk/1 */
 666:	81 e0       	ldi	r24, 0x01	; 1
 668:	09 c0       	rjmp	.+18     	; 0x67c <Buzzer_On+0x176>
	if ( ocr > 255)
	{
		ocr = F_CPU /freq/2/8 - 1;
		preesc = 0b010;		/* clk/8 */
 66a:	82 e0       	ldi	r24, 0x02	; 2
 66c:	07 c0       	rjmp	.+14     	; 0x67c <Buzzer_On+0x176>
		
		if (ocr > 255)
		{
			ocr = F_CPU /freq/2/32 - 1;
			preesc = 0b011;		/* clk/32 */			
 66e:	83 e0       	ldi	r24, 0x03	; 3
 670:	05 c0       	rjmp	.+10     	; 0x67c <Buzzer_On+0x176>
		}
		
		if (ocr > 255)
		{
			ocr = F_CPU /freq/2/64 - 1;
			preesc = 0b100;		/* clk/64 */
 672:	84 e0       	ldi	r24, 0x04	; 4
 674:	03 c0       	rjmp	.+6      	; 0x67c <Buzzer_On+0x176>
			
			if (ocr > 255)
			{
				ocr = F_CPU /freq/2/128 - 1;
				preesc = 0b101;		/* clk/128 */
 676:	85 e0       	ldi	r24, 0x05	; 5
 678:	01 c0       	rjmp	.+2      	; 0x67c <Buzzer_On+0x176>
			}
			if (ocr > 255)
			{
				ocr = F_CPU /freq/2/256 - 1;
				preesc = 0b110;		/* clk/256 */
 67a:	86 e0       	ldi	r24, 0x06	; 6
		}
		
	}
	
	/* Cambio del pre escalador*/
	TCCR2B = (TCCR2B & 0b11111000) | preesc;
 67c:	e1 eb       	ldi	r30, 0xB1	; 177
 67e:	f0 e0       	ldi	r31, 0x00	; 0
 680:	90 81       	ld	r25, Z
 682:	98 7f       	andi	r25, 0xF8	; 248
 684:	89 2b       	or	r24, r25
 686:	80 83       	st	Z, r24
	
	
	/* Cálculo de la cantidad de veces que cambiará*/
	toggle_count = 2 * freq * duration / 1000;
 688:	cc 0f       	add	r28, r28
 68a:	dd 1f       	adc	r29, r29
 68c:	be 01       	movw	r22, r28
 68e:	80 e0       	ldi	r24, 0x00	; 0
 690:	90 e0       	ldi	r25, 0x00	; 0
 692:	a2 01       	movw	r20, r4
 694:	91 01       	movw	r18, r2
 696:	0e 94 44 04 	call	0x888	; 0x888 <__mulsi3>
 69a:	28 ee       	ldi	r18, 0xE8	; 232
 69c:	33 e0       	ldi	r19, 0x03	; 3
 69e:	40 e0       	ldi	r20, 0x00	; 0
 6a0:	50 e0       	ldi	r21, 0x00	; 0
 6a2:	0e 94 77 04 	call	0x8ee	; 0x8ee <__udivmodsi4>
	
	
	/* Cambio del OCR*/
	OCR2A = ocr;
 6a6:	e0 92 b3 00 	sts	0x00B3, r14
	timer2_toggle_count = toggle_count;
 6aa:	20 93 79 01 	sts	0x0179, r18
 6ae:	30 93 7a 01 	sts	0x017A, r19
 6b2:	40 93 7b 01 	sts	0x017B, r20
 6b6:	50 93 7c 01 	sts	0x017C, r21
	TIMSK2 |=  1<<OCIE2A;
 6ba:	e0 e7       	ldi	r30, 0x70	; 112
 6bc:	f0 e0       	ldi	r31, 0x00	; 0
 6be:	80 81       	ld	r24, Z
 6c0:	82 60       	ori	r24, 0x02	; 2
 6c2:	80 83       	st	Z, r24
	
	return;
}
 6c4:	df 91       	pop	r29
 6c6:	cf 91       	pop	r28
 6c8:	1f 91       	pop	r17
 6ca:	0f 91       	pop	r16
 6cc:	ff 90       	pop	r15
 6ce:	ef 90       	pop	r14
 6d0:	df 90       	pop	r13
 6d2:	cf 90       	pop	r12
 6d4:	bf 90       	pop	r11
 6d6:	af 90       	pop	r10
 6d8:	9f 90       	pop	r9
 6da:	8f 90       	pop	r8
 6dc:	7f 90       	pop	r7
 6de:	6f 90       	pop	r6
 6e0:	5f 90       	pop	r5
 6e2:	4f 90       	pop	r4
 6e4:	3f 90       	pop	r3
 6e6:	2f 90       	pop	r2
 6e8:	08 95       	ret

000006ea <__vector_7>:
	
}

/*Subrutina de interrupción para el pin Buzzer */
ISR(TIMER2_COMPA_vect)
{
 6ea:	1f 92       	push	r1
 6ec:	0f 92       	push	r0
 6ee:	0f b6       	in	r0, 0x3f	; 63
 6f0:	0f 92       	push	r0
 6f2:	11 24       	eor	r1, r1
 6f4:	2f 93       	push	r18
 6f6:	8f 93       	push	r24
 6f8:	9f 93       	push	r25
 6fa:	af 93       	push	r26
 6fc:	bf 93       	push	r27
 6fe:	ef 93       	push	r30
 700:	ff 93       	push	r31
	int32_t temp_toggle_count = timer2_toggle_count;
 702:	80 91 79 01 	lds	r24, 0x0179
 706:	90 91 7a 01 	lds	r25, 0x017A
 70a:	a0 91 7b 01 	lds	r26, 0x017B
 70e:	b0 91 7c 01 	lds	r27, 0x017C
	
	if (temp_toggle_count != 0)
 712:	00 97       	sbiw	r24, 0x00	; 0
 714:	a1 05       	cpc	r26, r1
 716:	b1 05       	cpc	r27, r1
 718:	51 f0       	breq	.+20     	; 0x72e <__vector_7+0x44>
	{
		/* Toggle the pin*/
		toggle(PIN_Buzzer, P_Buzzer);
 71a:	4b 9a       	sbi	0x09, 3	; 9
		
		if (temp_toggle_count > 0)
 71c:	18 16       	cp	r1, r24
 71e:	19 06       	cpc	r1, r25
 720:	1a 06       	cpc	r1, r26
 722:	1b 06       	cpc	r1, r27
 724:	54 f4       	brge	.+20     	; 0x73a <__vector_7+0x50>
			temp_toggle_count--;
 726:	01 97       	sbiw	r24, 0x01	; 1
 728:	a1 09       	sbc	r26, r1
 72a:	b1 09       	sbc	r27, r1
 72c:	06 c0       	rjmp	.+12     	; 0x73a <__vector_7+0x50>
	}
	
	else
	{
		cbi(TIMSK2, OCIE2A);		/* Deshabilita la interrupcion por el comparador 'A' */
 72e:	e0 e7       	ldi	r30, 0x70	; 112
 730:	f0 e0       	ldi	r31, 0x00	; 0
 732:	20 81       	ld	r18, Z
 734:	2d 7f       	andi	r18, 0xFD	; 253
 736:	20 83       	st	Z, r18
		cbi(PORT_Buzzer,P_Buzzer);	/* Pone en bajo el pin del buzzer*/
 738:	5b 98       	cbi	0x0b, 3	; 11
	}
	
	timer2_toggle_count = temp_toggle_count;
 73a:	80 93 79 01 	sts	0x0179, r24
 73e:	90 93 7a 01 	sts	0x017A, r25
 742:	a0 93 7b 01 	sts	0x017B, r26
 746:	b0 93 7c 01 	sts	0x017C, r27
	
	
}
 74a:	ff 91       	pop	r31
 74c:	ef 91       	pop	r30
 74e:	bf 91       	pop	r27
 750:	af 91       	pop	r26
 752:	9f 91       	pop	r25
 754:	8f 91       	pop	r24
 756:	2f 91       	pop	r18
 758:	0f 90       	pop	r0
 75a:	0f be       	out	0x3f, r0	; 63
 75c:	0f 90       	pop	r0
 75e:	1f 90       	pop	r1
 760:	18 95       	reti

00000762 <__vector_4>:


/*Subrutina de interrupción para el pin ECHO*/
ISR (PCINT1_vect)
{
 762:	1f 92       	push	r1
 764:	0f 92       	push	r0
 766:	0f b6       	in	r0, 0x3f	; 63
 768:	0f 92       	push	r0
 76a:	11 24       	eor	r1, r1
 76c:	8f 93       	push	r24
	if (Ep == 0) { //ECHO flanco de subida
 76e:	80 91 5e 01 	lds	r24, 0x015E
 772:	88 23       	and	r24, r24
 774:	39 f4       	brne	.+14     	; 0x784 <__vector_4+0x22>
		TCCR1B = 0x02; /* Habilita el timer (Presc = 8) */
 776:	82 e0       	ldi	r24, 0x02	; 2
 778:	80 93 81 00 	sts	0x0081, r24
		Ep = 1;
 77c:	81 e0       	ldi	r24, 0x01	; 1
 77e:	80 93 5e 01 	sts	0x015E, r24
		return;
 782:	06 c0       	rjmp	.+12     	; 0x790 <__vector_4+0x2e>
	}
	if (Ep == 1) { //ECHO flanco de bajada
 784:	81 30       	cpi	r24, 0x01	; 1
 786:	21 f4       	brne	.+8      	; 0x790 <__vector_4+0x2e>
		TCCR1B = 0x00; /* Deshabilita el timer (Presc = 8) */
 788:	10 92 81 00 	sts	0x0081, r1
		Ep = 0;
 78c:	10 92 5e 01 	sts	0x015E, r1
		return;
	}
 790:	8f 91       	pop	r24
 792:	0f 90       	pop	r0
 794:	0f be       	out	0x3f, r0	; 63
 796:	0f 90       	pop	r0
 798:	1f 90       	pop	r1
 79a:	18 95       	reti

0000079c <USART_Init>:
void USART_Init(unsigned int ubrr_val)
{
	unsigned char x;

	/* Set the baud rate */
	UBRR0H = (unsigned char) (ubrr_val>>8);                  
 79c:	90 93 c5 00 	sts	0x00C5, r25
	UBRR0L = (unsigned char) ubrr_val;
 7a0:	80 93 c4 00 	sts	0x00C4, r24
	
	/* Enable 2X Mode */
	UCSR0A = (1<<U2X0);
 7a4:	82 e0       	ldi	r24, 0x02	; 2
 7a6:	80 93 c0 00 	sts	0x00C0, r24
	
	/* Enable USART receiver and transmitter */
	UCSR0B = ((1 << RXCIE0) | (1 << RXEN0) | (1 << TXEN0)); 
 7aa:	88 e9       	ldi	r24, 0x98	; 152
 7ac:	80 93 c1 00 	sts	0x00C1, r24
	/* For devices in which UBRRH/UCSRC shares the same location
	* eg; ATmega16, URSEL should be written to 1 when writing UCSRC
	* 
	*/
	/* Set frame format: 8 data 1stop */
	UCSR0C = (1 << UCSZ01) | (1 << UCSZ00);
 7b0:	86 e0       	ldi	r24, 0x06	; 6
 7b2:	80 93 c2 00 	sts	0x00C2, r24
	
	/* Flush receive buffer */
	x = 0; 			    

	USART_RxTail = x;
 7b6:	10 92 6a 01 	sts	0x016A, r1
	USART_RxHead = x;
 7ba:	10 92 69 01 	sts	0x0169, r1
	USART_TxTail = x;
 7be:	10 92 60 01 	sts	0x0160, r1
	USART_TxHead = x;
 7c2:	10 92 5f 01 	sts	0x015F, r1
}
 7c6:	08 95       	ret

000007c8 <__vector_18>:


ISR(USART_RX_vect)
{
 7c8:	1f 92       	push	r1
 7ca:	0f 92       	push	r0
 7cc:	0f b6       	in	r0, 0x3f	; 63
 7ce:	0f 92       	push	r0
 7d0:	11 24       	eor	r1, r1
 7d2:	2f 93       	push	r18
 7d4:	8f 93       	push	r24
 7d6:	9f 93       	push	r25
 7d8:	ef 93       	push	r30
 7da:	ff 93       	push	r31
	unsigned char data;
	unsigned char tmphead;

	/* Read the received data */
	data = UDR0;                 
 7dc:	90 91 c6 00 	lds	r25, 0x00C6
	/* Calculate buffer index */
	tmphead = (USART_RxHead + 1) & USART_RX_BUFFER_MASK;
 7e0:	80 91 69 01 	lds	r24, 0x0169
 7e4:	8f 5f       	subi	r24, 0xFF	; 255
 7e6:	87 70       	andi	r24, 0x07	; 7
	/* Store new index */
	USART_RxHead = tmphead;
 7e8:	80 93 69 01 	sts	0x0169, r24

	if (tmphead == USART_RxTail) {
 7ec:	20 91 6a 01 	lds	r18, 0x016A
		/* ERROR! Receive buffer overflow */
	}
	/* Store received data in buffer */
	USART_RxBuf[tmphead] = data; 
 7f0:	eb e6       	ldi	r30, 0x6B	; 107
 7f2:	f1 e0       	ldi	r31, 0x01	; 1
 7f4:	e8 0f       	add	r30, r24
 7f6:	f1 1d       	adc	r31, r1
 7f8:	90 83       	st	Z, r25
}
 7fa:	ff 91       	pop	r31
 7fc:	ef 91       	pop	r30
 7fe:	9f 91       	pop	r25
 800:	8f 91       	pop	r24
 802:	2f 91       	pop	r18
 804:	0f 90       	pop	r0
 806:	0f be       	out	0x3f, r0	; 63
 808:	0f 90       	pop	r0
 80a:	1f 90       	pop	r1
 80c:	18 95       	reti

0000080e <__vector_19>:


ISR(USART_UDRE_vect)
{
 80e:	1f 92       	push	r1
 810:	0f 92       	push	r0
 812:	0f b6       	in	r0, 0x3f	; 63
 814:	0f 92       	push	r0
 816:	11 24       	eor	r1, r1
 818:	8f 93       	push	r24
 81a:	9f 93       	push	r25
 81c:	ef 93       	push	r30
 81e:	ff 93       	push	r31
	unsigned char tmptail;

	/* Check if all data is transmitted */
	if (USART_TxHead != USART_TxTail) {
 820:	90 91 5f 01 	lds	r25, 0x015F
 824:	80 91 60 01 	lds	r24, 0x0160
 828:	98 17       	cp	r25, r24
 82a:	71 f0       	breq	.+28     	; 0x848 <__vector_19+0x3a>
		/* Calculate buffer index */
		tmptail = (USART_TxTail + 1) & USART_TX_BUFFER_MASK;
 82c:	80 91 60 01 	lds	r24, 0x0160
 830:	8f 5f       	subi	r24, 0xFF	; 255
 832:	87 70       	andi	r24, 0x07	; 7
		/* Store new index */
		USART_TxTail = tmptail;      
 834:	80 93 60 01 	sts	0x0160, r24
		/* Start transmission */
		UDR0 = USART_TxBuf[tmptail];  
 838:	e1 e6       	ldi	r30, 0x61	; 97
 83a:	f1 e0       	ldi	r31, 0x01	; 1
 83c:	e8 0f       	add	r30, r24
 83e:	f1 1d       	adc	r31, r1
 840:	80 81       	ld	r24, Z
 842:	80 93 c6 00 	sts	0x00C6, r24
 846:	05 c0       	rjmp	.+10     	; 0x852 <__vector_19+0x44>
	} else {       
		/* Disable UDRE interrupt */
		UCSR0B &= ~(1<<UDRIE0);         
 848:	e1 ec       	ldi	r30, 0xC1	; 193
 84a:	f0 e0       	ldi	r31, 0x00	; 0
 84c:	80 81       	ld	r24, Z
 84e:	8f 7d       	andi	r24, 0xDF	; 223
 850:	80 83       	st	Z, r24
	}
}
 852:	ff 91       	pop	r31
 854:	ef 91       	pop	r30
 856:	9f 91       	pop	r25
 858:	8f 91       	pop	r24
 85a:	0f 90       	pop	r0
 85c:	0f be       	out	0x3f, r0	; 63
 85e:	0f 90       	pop	r0
 860:	1f 90       	pop	r1
 862:	18 95       	reti

00000864 <USART_Receive>:
unsigned char USART_Receive(void)
{
	unsigned char tmptail;
	
	/* Wait for incoming data */
	while (USART_RxHead == USART_RxTail);
 864:	90 91 69 01 	lds	r25, 0x0169
 868:	80 91 6a 01 	lds	r24, 0x016A
 86c:	98 17       	cp	r25, r24
 86e:	d1 f3       	breq	.-12     	; 0x864 <USART_Receive>
	/* Calculate buffer index */
	tmptail = (USART_RxTail + 1) & USART_RX_BUFFER_MASK;
 870:	80 91 6a 01 	lds	r24, 0x016A
 874:	8f 5f       	subi	r24, 0xFF	; 255
 876:	87 70       	andi	r24, 0x07	; 7
	/* Store new index */
	USART_RxTail = tmptail;                
 878:	80 93 6a 01 	sts	0x016A, r24
	/* Return data */
	return USART_RxBuf[tmptail];          
 87c:	eb e6       	ldi	r30, 0x6B	; 107
 87e:	f1 e0       	ldi	r31, 0x01	; 1
 880:	e8 0f       	add	r30, r24
 882:	f1 1d       	adc	r31, r1
}
 884:	80 81       	ld	r24, Z
 886:	08 95       	ret

00000888 <__mulsi3>:
 888:	62 9f       	mul	r22, r18
 88a:	d0 01       	movw	r26, r0
 88c:	73 9f       	mul	r23, r19
 88e:	f0 01       	movw	r30, r0
 890:	82 9f       	mul	r24, r18
 892:	e0 0d       	add	r30, r0
 894:	f1 1d       	adc	r31, r1
 896:	64 9f       	mul	r22, r20
 898:	e0 0d       	add	r30, r0
 89a:	f1 1d       	adc	r31, r1
 89c:	92 9f       	mul	r25, r18
 89e:	f0 0d       	add	r31, r0
 8a0:	83 9f       	mul	r24, r19
 8a2:	f0 0d       	add	r31, r0
 8a4:	74 9f       	mul	r23, r20
 8a6:	f0 0d       	add	r31, r0
 8a8:	65 9f       	mul	r22, r21
 8aa:	f0 0d       	add	r31, r0
 8ac:	99 27       	eor	r25, r25
 8ae:	72 9f       	mul	r23, r18
 8b0:	b0 0d       	add	r27, r0
 8b2:	e1 1d       	adc	r30, r1
 8b4:	f9 1f       	adc	r31, r25
 8b6:	63 9f       	mul	r22, r19
 8b8:	b0 0d       	add	r27, r0
 8ba:	e1 1d       	adc	r30, r1
 8bc:	f9 1f       	adc	r31, r25
 8be:	bd 01       	movw	r22, r26
 8c0:	cf 01       	movw	r24, r30
 8c2:	11 24       	eor	r1, r1
 8c4:	08 95       	ret

000008c6 <__udivmodhi4>:
 8c6:	aa 1b       	sub	r26, r26
 8c8:	bb 1b       	sub	r27, r27
 8ca:	51 e1       	ldi	r21, 0x11	; 17
 8cc:	07 c0       	rjmp	.+14     	; 0x8dc <__udivmodhi4_ep>

000008ce <__udivmodhi4_loop>:
 8ce:	aa 1f       	adc	r26, r26
 8d0:	bb 1f       	adc	r27, r27
 8d2:	a6 17       	cp	r26, r22
 8d4:	b7 07       	cpc	r27, r23
 8d6:	10 f0       	brcs	.+4      	; 0x8dc <__udivmodhi4_ep>
 8d8:	a6 1b       	sub	r26, r22
 8da:	b7 0b       	sbc	r27, r23

000008dc <__udivmodhi4_ep>:
 8dc:	88 1f       	adc	r24, r24
 8de:	99 1f       	adc	r25, r25
 8e0:	5a 95       	dec	r21
 8e2:	a9 f7       	brne	.-22     	; 0x8ce <__udivmodhi4_loop>
 8e4:	80 95       	com	r24
 8e6:	90 95       	com	r25
 8e8:	bc 01       	movw	r22, r24
 8ea:	cd 01       	movw	r24, r26
 8ec:	08 95       	ret

000008ee <__udivmodsi4>:
 8ee:	a1 e2       	ldi	r26, 0x21	; 33
 8f0:	1a 2e       	mov	r1, r26
 8f2:	aa 1b       	sub	r26, r26
 8f4:	bb 1b       	sub	r27, r27
 8f6:	fd 01       	movw	r30, r26
 8f8:	0d c0       	rjmp	.+26     	; 0x914 <__udivmodsi4_ep>

000008fa <__udivmodsi4_loop>:
 8fa:	aa 1f       	adc	r26, r26
 8fc:	bb 1f       	adc	r27, r27
 8fe:	ee 1f       	adc	r30, r30
 900:	ff 1f       	adc	r31, r31
 902:	a2 17       	cp	r26, r18
 904:	b3 07       	cpc	r27, r19
 906:	e4 07       	cpc	r30, r20
 908:	f5 07       	cpc	r31, r21
 90a:	20 f0       	brcs	.+8      	; 0x914 <__udivmodsi4_ep>
 90c:	a2 1b       	sub	r26, r18
 90e:	b3 0b       	sbc	r27, r19
 910:	e4 0b       	sbc	r30, r20
 912:	f5 0b       	sbc	r31, r21

00000914 <__udivmodsi4_ep>:
 914:	66 1f       	adc	r22, r22
 916:	77 1f       	adc	r23, r23
 918:	88 1f       	adc	r24, r24
 91a:	99 1f       	adc	r25, r25
 91c:	1a 94       	dec	r1
 91e:	69 f7       	brne	.-38     	; 0x8fa <__udivmodsi4_loop>
 920:	60 95       	com	r22
 922:	70 95       	com	r23
 924:	80 95       	com	r24
 926:	90 95       	com	r25
 928:	9b 01       	movw	r18, r22
 92a:	ac 01       	movw	r20, r24
 92c:	bd 01       	movw	r22, r26
 92e:	cf 01       	movw	r24, r30
 930:	08 95       	ret

00000932 <itoa>:
 932:	fb 01       	movw	r30, r22
 934:	9f 01       	movw	r18, r30
 936:	e8 94       	clt
 938:	42 30       	cpi	r20, 0x02	; 2
 93a:	c4 f0       	brlt	.+48     	; 0x96c <itoa+0x3a>
 93c:	45 32       	cpi	r20, 0x25	; 37
 93e:	b4 f4       	brge	.+44     	; 0x96c <itoa+0x3a>
 940:	4a 30       	cpi	r20, 0x0A	; 10
 942:	29 f4       	brne	.+10     	; 0x94e <itoa+0x1c>
 944:	97 fb       	bst	r25, 7
 946:	1e f4       	brtc	.+6      	; 0x94e <itoa+0x1c>
 948:	90 95       	com	r25
 94a:	81 95       	neg	r24
 94c:	9f 4f       	sbci	r25, 0xFF	; 255
 94e:	64 2f       	mov	r22, r20
 950:	77 27       	eor	r23, r23
 952:	0e 94 63 04 	call	0x8c6	; 0x8c6 <__udivmodhi4>
 956:	80 5d       	subi	r24, 0xD0	; 208
 958:	8a 33       	cpi	r24, 0x3A	; 58
 95a:	0c f0       	brlt	.+2      	; 0x95e <itoa+0x2c>
 95c:	89 5d       	subi	r24, 0xD9	; 217
 95e:	81 93       	st	Z+, r24
 960:	cb 01       	movw	r24, r22
 962:	00 97       	sbiw	r24, 0x00	; 0
 964:	a1 f7       	brne	.-24     	; 0x94e <itoa+0x1c>
 966:	16 f4       	brtc	.+4      	; 0x96c <itoa+0x3a>
 968:	5d e2       	ldi	r21, 0x2D	; 45
 96a:	51 93       	st	Z+, r21
 96c:	10 82       	st	Z, r1
 96e:	c9 01       	movw	r24, r18
 970:	0c 94 ba 04 	jmp	0x974	; 0x974 <strrev>

00000974 <strrev>:
 974:	dc 01       	movw	r26, r24
 976:	fc 01       	movw	r30, r24
 978:	67 2f       	mov	r22, r23
 97a:	71 91       	ld	r23, Z+
 97c:	77 23       	and	r23, r23
 97e:	e1 f7       	brne	.-8      	; 0x978 <strrev+0x4>
 980:	32 97       	sbiw	r30, 0x02	; 2
 982:	04 c0       	rjmp	.+8      	; 0x98c <strrev+0x18>
 984:	7c 91       	ld	r23, X
 986:	6d 93       	st	X+, r22
 988:	70 83       	st	Z, r23
 98a:	62 91       	ld	r22, -Z
 98c:	ae 17       	cp	r26, r30
 98e:	bf 07       	cpc	r27, r31
 990:	c8 f3       	brcs	.-14     	; 0x984 <strrev+0x10>
 992:	08 95       	ret

00000994 <_exit>:
 994:	f8 94       	cli

00000996 <__stop_program>:
 996:	ff cf       	rjmp	.-2      	; 0x996 <__stop_program>
